(dp0
S'Toy Example'
p1
(dp2
S'inputs'
p3
(lp4
(dp5
S'a'
p6
(dp7
S'type'
p8
S'int'
p9
sS'data'
p10
I12
ssS'b'
p11
(dp12
g8
S'int'
p13
sg10
I84
ssa(dp14
g6
(dp15
g8
S'int'
p16
sg10
I54
ssg11
(dp17
g8
S'int'
p18
sg10
I59
ssa(dp19
g6
(dp20
g8
S'int'
p21
sg10
I49
ssg11
(dp22
g8
S'int'
p23
sg10
I55
ssa(dp24
g6
(dp25
g8
S'int'
p26
sg10
I89
ssg11
(dp27
g8
S'int'
p28
sg10
I1
ssa(dp29
g6
(dp30
g8
S'int'
p31
sg10
I51
ssg11
(dp32
g8
S'int'
p33
sg10
I88
ssa(dp34
g6
(dp35
g8
S'int'
p36
sg10
I29
ssg11
(dp37
g8
S'int'
p38
sg10
I53
ssa(dp39
g6
(dp40
g8
S'int'
p41
sg10
I74
ssg11
(dp42
g8
S'int'
p43
sg10
I64
ssa(dp44
g6
(dp45
g8
S'int'
p46
sg10
I93
ssg11
(dp47
g8
S'int'
p48
sg10
I10
ssa(dp49
g6
(dp50
g8
S'int'
p51
sg10
I75
ssg11
(dp52
g8
S'int'
p53
sg10
I22
ssa(dp54
g6
(dp55
g8
S'int'
p56
sg10
I50
ssg11
(dp57
g8
S'int'
p58
sg10
I55
ssa(dp59
g6
(dp60
g8
S'int'
p61
sg10
I39
ssg11
(dp62
g8
S'int'
p63
sg10
I36
ssa(dp64
g6
(dp65
g8
S'int'
p66
sg10
I8
ssg11
(dp67
g8
S'int'
p68
sg10
I85
ssa(dp69
g6
(dp70
g8
S'int'
p71
sg10
I8
ssg11
(dp72
g8
S'int'
p73
sg10
I75
ssa(dp74
g6
(dp75
g8
S'int'
p76
sg10
I12
ssg11
(dp77
g8
S'int'
p78
sg10
I45
ssa(dp79
g6
(dp80
g8
S'int'
p81
sg10
I37
ssg11
(dp82
g8
S'int'
p83
sg10
I14
ssa(dp84
g6
(dp85
g8
S'int'
p86
sg10
I59
ssg11
(dp87
g8
S'int'
p88
sg10
I79
ssa(dp89
g6
(dp90
g8
S'int'
p91
sg10
I61
ssg11
(dp92
g8
S'int'
p93
sg10
I56
ssa(dp94
g6
(dp95
g8
S'int'
p96
sg10
I31
ssg11
(dp97
g8
S'int'
p98
sg10
I23
ssa(dp99
g6
(dp100
g8
S'int'
p101
sg10
I90
ssg11
(dp102
g8
S'int'
p103
sg10
I38
ssa(dp104
g6
(dp105
g8
S'int'
p106
sg10
I29
ssg11
(dp107
g8
S'int'
p108
sg10
I25
ssa(dp109
g6
(dp110
g8
S'int'
p111
sg10
I86
ssg11
(dp112
g8
S'int'
p113
sg10
I81
ssa(dp114
g6
(dp115
g8
S'int'
p116
sg10
I1
ssg11
(dp117
g8
S'int'
p118
sg10
I73
ssa(dp119
g6
(dp120
g8
S'int'
p121
sg10
I88
ssg11
(dp122
g8
S'int'
p123
sg10
I8
ssa(dp124
g6
(dp125
g8
S'int'
p126
sg10
I14
ssg11
(dp127
g8
S'int'
p128
sg10
I40
ssa(dp129
g6
(dp130
g8
S'int'
p131
sg10
I41
ssg11
(dp132
g8
S'int'
p133
sg10
I86
ssa(dp134
g6
(dp135
g8
S'int'
p136
sg10
I82
ssg11
(dp137
g8
S'int'
p138
sg10
I59
ssa(dp139
g6
(dp140
g8
S'int'
p141
sg10
I49
ssg11
(dp142
g8
S'int'
p143
sg10
I60
ssa(dp144
g6
(dp145
g8
S'int'
p146
sg10
I47
ssg11
(dp147
g8
S'int'
p148
sg10
I58
ssa(dp149
g6
(dp150
g8
S'int'
p151
sg10
I51
ssg11
(dp152
g8
S'int'
p153
sg10
I86
ssa(dp154
g6
(dp155
g8
S'int'
p156
sg10
I58
ssg11
(dp157
g8
S'int'
p158
sg10
I11
ssa(dp159
g6
(dp160
g8
S'int'
p161
sg10
I9
ssg11
(dp162
g8
S'int'
p163
sg10
I26
ssa(dp164
g6
(dp165
g8
S'int'
p166
sg10
I91
ssg11
(dp167
g8
S'int'
p168
sg10
I45
ssa(dp169
g6
(dp170
g8
S'int'
p171
sg10
I26
ssg11
(dp172
g8
S'int'
p173
sg10
I28
ssa(dp174
g6
(dp175
g8
S'int'
p176
sg10
I69
ssg11
(dp177
g8
S'int'
p178
sg10
I65
ssa(dp179
g6
(dp180
g8
S'int'
p181
sg10
I25
ssg11
(dp182
g8
S'int'
p183
sg10
I6
ssa(dp184
g6
(dp185
g8
S'int'
p186
sg10
I60
ssg11
(dp187
g8
S'int'
p188
sg10
I68
ssa(dp189
g6
(dp190
g8
S'int'
p191
sg10
I74
ssg11
(dp192
g8
S'int'
p193
sg10
I64
ssa(dp194
g6
(dp195
g8
S'int'
p196
sg10
I75
ssg11
(dp197
g8
S'int'
p198
sg10
I68
ssa(dp199
g6
(dp200
g8
S'int'
p201
sg10
I24
ssg11
(dp202
g8
S'int'
p203
sg10
I94
ssa(dp204
g6
(dp205
g8
S'int'
p206
sg10
I82
ssg11
(dp207
g8
S'int'
p208
sg10
I63
ssa(dp209
g6
(dp210
g8
S'int'
p211
sg10
I43
ssg11
(dp212
g8
S'int'
p213
sg10
I40
ssa(dp214
g6
(dp215
g8
S'int'
p216
sg10
I71
ssg11
(dp217
g8
S'int'
p218
sg10
I84
ssa(dp219
g6
(dp220
g8
S'int'
p221
sg10
I53
ssg11
(dp222
g8
S'int'
p223
sg10
I23
ssa(dp224
g6
(dp225
g8
S'int'
p226
sg10
I51
ssg11
(dp227
g8
S'int'
p228
sg10
I7
ssa(dp229
g6
(dp230
g8
S'int'
p231
sg10
I26
ssg11
(dp232
g8
S'int'
p233
sg10
I75
ssa(dp234
g6
(dp235
g8
S'int'
p236
sg10
I18
ssg11
(dp237
g8
S'int'
p238
sg10
I47
ssa(dp239
g6
(dp240
g8
S'int'
p241
sg10
I87
ssg11
(dp242
g8
S'int'
p243
sg10
I14
ssa(dp244
g6
(dp245
g8
S'int'
p246
sg10
I99
ssg11
(dp247
g8
S'int'
p248
sg10
I71
ssa(dp249
g6
(dp250
g8
S'int'
p251
sg10
I40
ssg11
(dp252
g8
S'int'
p253
sg10
I87
ssa(dp254
g6
(dp255
g8
S'int'
p256
sg10
I31
ssg11
(dp257
g8
S'int'
p258
sg10
I68
ssa(dp259
g6
(dp260
g8
S'int'
p261
sg10
I47
ssg11
(dp262
g8
S'int'
p263
sg10
I76
ssa(dp264
g6
(dp265
g8
S'int'
p266
sg10
I92
ssg11
(dp267
g8
S'int'
p268
sg10
I34
ssa(dp269
g6
(dp270
g8
S'int'
p271
sg10
I93
ssg11
(dp272
g8
S'int'
p273
sg10
I18
ssa(dp274
g6
(dp275
g8
S'int'
p276
sg10
I56
ssg11
(dp277
g8
S'int'
p278
sg10
I90
ssa(dp279
g6
(dp280
g8
S'int'
p281
sg10
I18
ssg11
(dp282
g8
S'int'
p283
sg10
I26
ssa(dp284
g6
(dp285
g8
S'int'
p286
sg10
I67
ssg11
(dp287
g8
S'int'
p288
sg10
I38
ssa(dp289
g6
(dp290
g8
S'int'
p291
sg10
I53
ssg11
(dp292
g8
S'int'
p293
sg10
I26
ssa(dp294
g6
(dp295
g8
S'int'
p296
sg10
I91
ssg11
(dp297
g8
S'int'
p298
sg10
I74
ssa(dp299
g6
(dp300
g8
S'int'
p301
sg10
I29
ssg11
(dp302
g8
S'int'
p303
sg10
I88
ssa(dp304
g6
(dp305
g8
S'int'
p306
sg10
I89
ssg11
(dp307
g8
S'int'
p308
sg10
I4
ssa(dp309
g6
(dp310
g8
S'int'
p311
sg10
I63
ssg11
(dp312
g8
S'int'
p313
sg10
I71
ssa(dp314
g6
(dp315
g8
S'int'
p316
sg10
I67
ssg11
(dp317
g8
S'int'
p318
sg10
I44
ssa(dp319
g6
(dp320
g8
S'int'
p321
sg10
I3
ssg11
(dp322
g8
S'int'
p323
sg10
I12
ssa(dp324
g6
(dp325
g8
S'int'
p326
sg10
I76
ssg11
(dp327
g8
S'int'
p328
sg10
I15
ssa(dp329
g6
(dp330
g8
S'int'
p331
sg10
I22
ssg11
(dp332
g8
S'int'
p333
sg10
I69
ssa(dp334
g6
(dp335
g8
S'int'
p336
sg10
I22
ssg11
(dp337
g8
S'int'
p338
sg10
I80
ssa(dp339
g6
(dp340
g8
S'int'
p341
sg10
I92
ssg11
(dp342
g8
S'int'
p343
sg10
I51
ssa(dp344
g6
(dp345
g8
S'int'
p346
sg10
I5
ssg11
(dp347
g8
S'int'
p348
sg10
I68
ssa(dp349
g6
(dp350
g8
S'int'
p351
sg10
I40
ssg11
(dp352
g8
S'int'
p353
sg10
I22
ssa(dp354
g6
(dp355
g8
S'int'
p356
sg10
I32
ssg11
(dp357
g8
S'int'
p358
sg10
I17
ssa(dp359
g6
(dp360
g8
S'int'
p361
sg10
I6
ssg11
(dp362
g8
S'int'
p363
sg10
I14
ssa(dp364
g6
(dp365
g8
S'int'
p366
sg10
I18
ssg11
(dp367
g8
S'int'
p368
sg10
I77
ssa(dp369
g6
(dp370
g8
S'int'
p371
sg10
I86
ssg11
(dp372
g8
S'int'
p373
sg10
I87
ssa(dp374
g6
(dp375
g8
S'int'
p376
sg10
I78
ssg11
(dp377
g8
S'int'
p378
sg10
I69
ssa(dp379
g6
(dp380
g8
S'int'
p381
sg10
I16
ssg11
(dp382
g8
S'int'
p383
sg10
I65
ssa(dp384
g6
(dp385
g8
S'int'
p386
sg10
I79
ssg11
(dp387
g8
S'int'
p388
sg10
I96
ssa(dp389
g6
(dp390
g8
S'int'
p391
sg10
I79
ssg11
(dp392
g8
S'int'
p393
sg10
I26
ssa(dp394
g6
(dp395
g8
S'int'
p396
sg10
I66
ssg11
(dp397
g8
S'int'
p398
sg10
I86
ssa(dp399
g6
(dp400
g8
S'int'
p401
sg10
I77
ssg11
(dp402
g8
S'int'
p403
sg10
I61
ssa(dp404
g6
(dp405
g8
S'int'
p406
sg10
I40
ssg11
(dp407
g8
S'int'
p408
sg10
I14
ssa(dp409
g6
(dp410
g8
S'int'
p411
sg10
I74
ssg11
(dp412
g8
S'int'
p413
sg10
I29
ssa(dp414
g6
(dp415
g8
S'int'
p416
sg10
I54
ssg11
(dp417
g8
S'int'
p418
sg10
I6
ssa(dp419
g6
(dp420
g8
S'int'
p421
sg10
I61
ssg11
(dp422
g8
S'int'
p423
sg10
I35
ssa(dp424
g6
(dp425
g8
S'int'
p426
sg10
I35
ssg11
(dp427
g8
S'int'
p428
sg10
I46
ssa(dp429
g6
(dp430
g8
S'int'
p431
sg10
I26
ssg11
(dp432
g8
S'int'
p433
sg10
I36
ssa(dp434
g6
(dp435
g8
S'int'
p436
sg10
I16
ssg11
(dp437
g8
S'int'
p438
sg10
I52
ssa(dp439
g6
(dp440
g8
S'int'
p441
sg10
I78
ssg11
(dp442
g8
S'int'
p443
sg10
I44
ssa(dp444
g6
(dp445
g8
S'int'
p446
sg10
I46
ssg11
(dp447
g8
S'int'
p448
sg10
I98
ssa(dp449
g6
(dp450
g8
S'int'
p451
sg10
I99
ssg11
(dp452
g8
S'int'
p453
sg10
I27
ssa(dp454
g6
(dp455
g8
S'int'
p456
sg10
I55
ssg11
(dp457
g8
S'int'
p458
sg10
I48
ssa(dp459
g6
(dp460
g8
S'int'
p461
sg10
I79
ssg11
(dp462
g8
S'int'
p463
sg10
I49
ssa(dp464
g6
(dp465
g8
S'int'
p466
sg10
I83
ssg11
(dp467
g8
S'int'
p468
sg10
I78
ssa(dp469
g6
(dp470
g8
S'int'
p471
sg10
I33
ssg11
(dp472
g8
S'int'
p473
sg10
I23
ssa(dp474
g6
(dp475
g8
S'int'
p476
sg10
I92
ssg11
(dp477
g8
S'int'
p478
sg10
I9
ssa(dp479
g6
(dp480
g8
S'int'
p481
sg10
I88
ssg11
(dp482
g8
S'int'
p483
sg10
I43
ssa(dp484
g6
(dp485
g8
S'int'
p486
sg10
I1
ssg11
(dp487
g8
S'int'
p488
sg10
I39
ssa(dp489
g6
(dp490
g8
S'int'
p491
sg10
I12
ssg11
(dp492
g8
S'int'
p493
sg10
I50
ssa(dp494
g6
(dp495
g8
S'int'
p496
sg10
I97
ssg11
(dp497
g8
S'int'
p498
sg10
I23
ssa(dp499
g6
(dp500
g8
S'int'
p501
sg10
I52
ssg11
(dp502
g8
S'int'
p503
sg10
I60
ssa(dp504
g6
(dp505
g8
S'int'
p506
sg10
I24
ssg11
(dp507
g8
S'int'
p508
sg10
I4
ssasS'ipd'
p509
(lp510
cnumpy.core.multiarray
scalar
p511
(cnumpy
dtype
p512
(S'i8'
p513
I0
I1
tp514
Rp515
(I3
S'<'
p516
NNNI-1
I-1
I0
tp517
bS'\\!\x00\x00\x00\x00\x00\x00'
p518
tp519
Rp520
ag511
(g515
S'\x87\x16\x00\x00\x00\x00\x00\x00'
p521
tp522
Rp523
ag511
(g515
S']\x04\x00\x00\x00\x00\x00\x00'
p524
tp525
Rp526
ag511
(g515
S'\xff\x00\x00\x00\x00\x00\x00\x00'
p527
tp528
Rp529
ag511
(g515
S'\x03\x1c\x00\x00\x00\x00\x00\x00'
p530
tp531
Rp532
ag511
(g515
S'\x0c\x18\x00\x00\x00\x00\x00\x00'
p533
tp534
Rp535
ag511
(g515
S'\xdc\x03\x00\x00\x00\x00\x00\x00'
p536
tp537
Rp538
ag511
(g515
S'x \x00\x00\x00\x00\x00\x00'
p539
tp540
Rp541
ag511
(g515
S'\x0b\x07\x00\x00\x00\x00\x00\x00'
p542
tp543
Rp544
ag511
(g515
S'x\x08\x00\x00\x00\x00\x00\x00'
p545
tp546
Rp547
ag511
(g515
S'\x05\r\x00\x00\x00\x00\x00\x00'
p548
tp549
Rp550
ag511
(g515
S'\xfb\x1b\x00\x00\x00\x00\x00\x00'
p551
tp552
Rp553
ag511
(g515
S'Y\x15\x00\x00\x00\x00\x00\x00'
p554
tp555
Rp556
ag511
(g515
S'\xf3"\x00\x00\x00\x00\x00\x00'
p557
tp558
Rp559
ag511
(g515
S'\xa9\x00\x00\x00\x00\x00\x00\x00'
p560
tp561
Rp562
ag511
(g515
S'\xa0\x16\x00\x00\x00\x00\x00\x00'
p563
tp564
Rp565
ag511
(g515
S'\xcd\x04\x00\x00\x00\x00\x00\x00'
p566
tp567
Rp568
ag511
(g515
S'\xc9 \x00\x00\x00\x00\x00\x00'
p569
tp570
Rp571
ag511
(g515
S';\x13\x00\x00\x00\x00\x00\x00'
p572
tp573
Rp574
ag511
(g515
S'+\x14\x00\x00\x00\x00\x00\x00'
p575
tp576
Rp577
ag511
(g515
S'e\x05\x00\x00\x00\x00\x00\x00'
p578
tp579
Rp580
ag511
(g515
S'\xda\x12\x00\x00\x00\x00\x00\x00'
p581
tp582
Rp583
ag511
(g515
S'\\\x01\x00\x00\x00\x00\x00\x00'
p584
tp585
Rp586
ag511
(g515
S'\x02\x10\x00\x00\x00\x00\x00\x00'
p587
tp588
Rp589
ag511
(g515
S':\x17\x00\x00\x00\x00\x00\x00'
p590
tp591
Rp592
ag511
(g515
S'\xe8\x1c\x00\x00\x00\x00\x00\x00'
p593
tp594
Rp595
ag511
(g515
S'6\x14\x00\x00\x00\x00\x00\x00'
p596
tp597
Rp598
ag511
(g515
S'\xdf\x12\x00\x00\x00\x00\x00\x00'
p599
tp600
Rp601
ag511
(g515
S'$\t\x00\x00\x00\x00\x00\x00'
p602
tp603
Rp604
ag511
(g515
S'\n\x15\x00\x00\x00\x00\x00\x00'
p605
tp606
Rp607
ag511
(g515
S'\xa0\t\x00\x00\x00\x00\x00\x00'
p608
tp609
Rp610
ag511
(g515
S'\x11\x1d\x00\x00\x00\x00\x00\x00'
p611
tp612
Rp613
ag511
(g515
S'\xa7\x14\x00\x00\x00\x00\x00\x00'
p614
tp615
Rp616
ag511
(g515
S'\x80\x12\x00\x00\x00\x00\x00\x00'
p617
tp618
Rp619
ag511
(g515
S'\x9f\x1f\x00\x00\x00\x00\x00\x00'
p620
tp621
Rp622
ag511
(g515
S'N\x02\x00\x00\x00\x00\x00\x00'
p623
tp624
Rp625
ag511
(g515
S'\t \x00\x00\x00\x00\x00\x00'
p626
tp627
Rp628
ag511
(g515
S'{\x17\x00\x00\x00\x00\x00\x00'
p629
tp630
Rp631
ag511
(g515
S'\xdb\x0f\x00\x00\x00\x00\x00\x00'
p632
tp633
Rp634
ag511
(g515
S'2%\x00\x00\x00\x00\x00\x00'
p635
tp636
Rp637
ag511
(g515
S'\x10\x15\x00\x00\x00\x00\x00\x00'
p638
tp639
Rp640
ag511
(g515
S'#\x03\x00\x00\x00\x00\x00\x00'
p641
tp642
Rp643
ag511
(g515
S'\xc5\x0c\x00\x00\x00\x00\x00\x00'
p644
tp645
Rp646
ag511
(g515
S'\xf4\x13\x00\x00\x00\x00\x00\x00'
p647
tp648
Rp649
ag511
(g515
S'\xd7\x0c\x00\x00\x00\x00\x00\x00'
p650
tp651
Rp652
ag511
(g515
S'\x87\x1e\x00\x00\x00\x00\x00\x00'
p653
tp654
Rp655
ag511
(g515
S'!\x01\x00\x00\x00\x00\x00\x00'
p656
tp657
Rp658
ag511
(g515
S'-\x07\x00\x00\x00\x00\x00\x00'
p659
tp660
Rp661
ag511
(g515
S'\xb3\x1f\x00\x00\x00\x00\x00\x00'
p662
tp663
Rp664
ag511
(g515
S'\x15\x13\x00\x00\x00\x00\x00\x00'
p665
tp666
Rp667
ag511
(g515
S'\xc1\x01\x00\x00\x00\x00\x00\x00'
p668
tp669
Rp670
ag511
(g515
S'\x07%\x00\x00\x00\x00\x00\x00'
p671
tp672
Rp673
ag511
(g515
S'\x92#\x00\x00\x00\x00\x00\x00'
p674
tp675
Rp676
ag511
(g515
S'\xf1!\x00\x00\x00\x00\x00\x00'
p677
tp678
Rp679
ag511
(g515
S'9\x07\x00\x00\x00\x00\x00\x00'
p680
tp681
Rp682
ag511
(g515
S"' \x00\x00\x00\x00\x00\x00"
p683
tp684
Rp685
ag511
(g515
S'V\t\x00\x00\x00\x00\x00\x00'
p686
tp687
Rp688
ag511
(g515
S'+\x00\x00\x00\x00\x00\x00\x00'
p689
tp690
Rp691
ag511
(g515
S'/\x1a\x00\x00\x00\x00\x00\x00'
p692
tp693
Rp694
ag511
(g515
S'z\x1a\x00\x00\x00\x00\x00\x00'
p695
tp696
Rp697
ag511
(g515
S'\x1d\x07\x00\x00\x00\x00\x00\x00'
p698
tp699
Rp700
ag511
(g515
S'U\x15\x00\x00\x00\x00\x00\x00'
p701
tp702
Rp703
ag511
(g515
S'\x00\x16\x00\x00\x00\x00\x00\x00'
p704
tp705
Rp706
ag511
(g515
S'8\t\x00\x00\x00\x00\x00\x00'
p707
tp708
Rp709
ag511
(g515
S'\xfa\x0e\x00\x00\x00\x00\x00\x00'
p710
tp711
Rp712
ag511
(g515
S'm\x07\x00\x00\x00\x00\x00\x00'
p713
tp714
Rp715
ag511
(g515
S'\xa7\x00\x00\x00\x00\x00\x00\x00'
p716
tp717
Rp718
ag511
(g515
S'$\x02\x00\x00\x00\x00\x00\x00'
p719
tp720
Rp721
ag511
(g515
S'\xcb\x03\x00\x00\x00\x00\x00\x00'
p722
tp723
Rp724
ag511
(g515
S'\xe5\x0b\x00\x00\x00\x00\x00\x00'
p725
tp726
Rp727
ag511
(g515
S'\xe4\x0b\x00\x00\x00\x00\x00\x00'
p728
tp729
Rp730
ag511
(g515
S'"#\x00\x00\x00\x00\x00\x00'
p731
tp732
Rp733
ag511
(g515
S'\x14\x05\x00\x00\x00\x00\x00\x00'
p734
tp735
Rp736
ag511
(g515
S'\x7f\x0b\x00\x00\x00\x00\x00\x00'
p737
tp738
Rp739
ag511
(g515
S'\x1c"\x00\x00\x00\x00\x00\x00'
p740
tp741
Rp742
ag511
(g515
S'o\x02\x00\x00\x00\x00\x00\x00'
p743
tp744
Rp745
ag511
(g515
S'\xba!\x00\x00\x00\x00\x00\x00'
p746
tp747
Rp748
ag511
(g515
S'f\x1c\x00\x00\x00\x00\x00\x00'
p749
tp750
Rp751
ag511
(g515
S'\x9f\x08\x00\x00\x00\x00\x00\x00'
p752
tp753
Rp754
ag511
(g515
S'4\r\x00\x00\x00\x00\x00\x00'
p755
tp756
Rp757
ag511
(g515
S'\x15\x18\x00\x00\x00\x00\x00\x00'
p758
tp759
Rp760
ag511
(g515
S'\xb9\x0e\x00\x00\x00\x00\x00\x00'
p761
tp762
Rp763
ag511
(g515
S'4\x08\x00\x00\x00\x00\x00\x00'
p764
tp765
Rp766
ag511
(g515
S'\x05\x06\x00\x00\x00\x00\x00\x00'
p767
tp768
Rp769
ag511
(g515
S'\xf6\x10\x00\x00\x00\x00\x00\x00'
p770
tp771
Rp772
ag511
(g515
S'\xac\x10\x00\x00\x00\x00\x00\x00'
p773
tp774
Rp775
ag511
(g515
S'\xd2\x19\x00\x00\x00\x00\x00\x00'
p776
tp777
Rp778
ag511
(g515
S'\x06\x04\x00\x00\x00\x00\x00\x00'
p779
tp780
Rp781
ag511
(g515
S'<\x1c\x00\x00\x00\x00\x00\x00'
p782
tp783
Rp784
ag511
(g515
S'~\x0f\x00\x00\x00\x00\x00\x00'
p785
tp786
Rp787
ag511
(g515
S'/\x12\x00\x00\x00\x00\x00\x00'
p788
tp789
Rp790
ag511
(g515
S'\x07\x03\x00\x00\x00\x00\x00\x00'
p791
tp792
Rp793
ag511
(g515
S'\xd7\x01\x00\x00\x00\x00\x00\x00'
p794
tp795
Rp796
ag511
(g515
S'p\x18\x00\x00\x00\x00\x00\x00'
p797
tp798
Rp799
ag511
(g515
S'\x10\x1a\x00\x00\x00\x00\x00\x00'
p800
tp801
Rp802
ag511
(g515
S'\xa5\x02\x00\x00\x00\x00\x00\x00'
p803
tp804
Rp805
ag511
(g515
S'q\x1b\x00\x00\x00\x00\x00\x00'
p806
tp807
Rp808
ag511
(g515
S'f\x10\x00\x00\x00\x00\x00\x00'
p809
tp810
Rp811
ag511
(g515
S'\x9f\x04\x00\x00\x00\x00\x00\x00'
p812
tp813
Rp814
ag511
(g515
S'\xd5\x14\x00\x00\x00\x00\x00\x00'
p815
tp816
Rp817
asS'outputs'
p818
(lp819
I96
aI113
aI104
aI90
aI139
aI82
aI138
aI103
aI97
aI105
aI75
aI93
aI83
aI57
aI51
aI138
aI117
aI54
aI128
aI54
aI167
aI74
aI96
aI54
aI127
aI141
aI109
aI105
aI137
aI69
aI35
aI136
aI54
aI134
aI31
aI128
aI138
aI143
aI118
aI145
aI83
aI155
aI76
aI58
aI101
aI65
aI101
aI170
aI127
aI99
aI123
aI126
aI111
aI146
aI44
aI105
aI79
aI165
aI117
aI93
aI134
aI111
aI15
aI91
aI91
aI102
aI143
aI73
aI62
aI49
aI20
aI95
aI173
aI147
aI81
aI175
aI105
aI152
aI138
aI54
aI103
aI60
aI96
aI81
aI62
aI68
aI122
aI144
aI126
aI103
aI128
aI161
aI56
aI101
aI131
aI40
aI62
aI120
aI112
aI28
ass.